target datalayout = "e-m:e-p270:32:32-p271:32:32-p272:64:64-i64:64-i128:128-f80:128-n8:16:32:64-S128"
target triple = "x86_64-pc-linux-gnu"

%struct.test_fixture = type { ptr, ptr }

@.str = private unnamed_addr constant [31 x i8] c"../openssl/test/cmp_ctx_test.c\00", align 1
@.str.6 = private unnamed_addr constant [20 x i8] c"test_cmp_ctx_log_cb\00", align 1
@.str.77 = private unnamed_addr constant [28 x i8] c"execute_cmp_ctx_log_cb_test\00", align 1
@test_log_line = internal global i32 0, align 4
@.str.88 = private unnamed_addr constant [3 x i8] c"-1\00", align 1
@test_log_cb_res = internal global i32 0, align 4
@.str.92 = private unnamed_addr constant [35 x i8] c"OSSL_CMP_CTX_set_log_cb(ctx, NULL)\00", align 1
@.str.93 = private unnamed_addr constant [6 x i8] c"ERROR\00", align 1
@.str.94 = private unnamed_addr constant [3 x i8] c"%s\00", align 1
@.str.95 = private unnamed_addr constant [44 x i8] c"this should be printed as CMP error message\00", align 1
@.str.96 = private unnamed_addr constant [5 x i8] c"WARN\00", align 1
@.str.97 = private unnamed_addr constant [46 x i8] c"this should be printed as CMP warning message\00", align 1
@.str.98 = private unnamed_addr constant [6 x i8] c"DEBUG\00", align 1
@.str.99 = private unnamed_addr constant [27 x i8] c"this should not be printed\00", align 1
@.str.100 = private unnamed_addr constant [56 x i8] c"OSSL_CMP_CTX_set_log_verbosity(ctx, OSSL_CMP_LOG_DEBUG)\00", align 1
@.str.101 = private unnamed_addr constant [44 x i8] c"this should be printed as CMP debug message\00", align 1
@.str.102 = private unnamed_addr constant [55 x i8] c"OSSL_CMP_CTX_set_log_verbosity(ctx, OSSL_CMP_LOG_INFO)\00", align 1
@.str.103 = private unnamed_addr constant [42 x i8] c"OSSL_CMP_CTX_set_log_cb(ctx, test_log_cb)\00", align 1
@.str.104 = private unnamed_addr constant [5 x i8] c"INFO\00", align 1
@.str.105 = private unnamed_addr constant [5 x i8] c"%s%c\00", align 1
@.str.106 = private unnamed_addr constant [2 x i8] c"o\00", align 1
@.str.107 = private unnamed_addr constant [16 x i8] c"test_log_cb_res\00", align 1
@.str.108 = private unnamed_addr constant [2 x i8] c"1\00", align 1

; Function Attrs: nounwind uwtable
define internal void @tear_down(ptr noundef %0) #0 {
  %2 = alloca ptr, align 8
  store ptr %0, ptr %2, align 8, !tbaa !15
  %3 = load ptr, ptr %2, align 8, !tbaa !15
  %4 = icmp ne ptr %3, null
  br i1 %4, label %5, label %9

5:                                                ; preds = %1
  %6 = load ptr, ptr %2, align 8, !tbaa !15
  %7 = getelementptr inbounds nuw %struct.test_fixture, ptr %6, i32 0, i32 1
  %8 = load ptr, ptr %7, align 8, !tbaa !17
  call void @OSSL_CMP_CTX_free(ptr noundef %8)
  br label %9

9:                                                ; preds = %5, %1
  %10 = load ptr, ptr %2, align 8, !tbaa !15
  call void @CRYPTO_free(ptr noundef %10, ptr noundef @.str, i32 noundef 25)
  ret void
}

; Function Attrs: nounwind uwtable
define internal i32 @execute_cmp_ctx_log_cb_test(ptr noundef %0) #0 {
  %2 = alloca ptr, align 8
  %3 = alloca i32, align 4
  %4 = alloca ptr, align 8
  store ptr %0, ptr %2, align 8, !tbaa !15
  call void @llvm.lifetime.start.p0(i64 4, ptr %3) #5
  store i32 1, ptr %3, align 4, !tbaa !13
  call void @llvm.lifetime.start.p0(i64 8, ptr %4) #5
  %5 = load ptr, ptr %2, align 8, !tbaa !15
  %6 = getelementptr inbounds nuw %struct.test_fixture, ptr %5, i32 0, i32 1
  %7 = load ptr, ptr %6, align 8, !tbaa !17
  store ptr %7, ptr %4, align 8, !tbaa !11
  %8 = call i32 @OSSL_CMP_log_open()
  %9 = call i32 @OSSL_CMP_log_open()
  %10 = load ptr, ptr %4, align 8, !tbaa !11
  %11 = call i32 @OSSL_CMP_CTX_set_log_cb(ptr noundef %10, ptr noundef null)
  %12 = icmp ne i32 %11, 0
  %13 = zext i1 %12 to i32
  %14 = call i32 @test_true(ptr noundef @.str, i32 noundef 285, ptr noundef @.str.92, i32 noundef %13)
  %15 = icmp ne i32 %14, 0
  br i1 %15, label %17, label %16

16:                                               ; preds = %1
  store i32 0, ptr %3, align 4, !tbaa !13
  br label %36

17:                                               ; preds = %1
  %18 = load ptr, ptr %4, align 8, !tbaa !11
  %19 = call i32 (i32, ptr, ptr, ptr, i32, ptr, ptr, ...) @ossl_cmp_print_log(i32 noundef 3, ptr noundef %18, ptr noundef @.str.77, ptr noundef @.str, i32 noundef 288, ptr noundef @.str.93, ptr noundef @.str.94, ptr noundef @.str.95)
  %20 = load ptr, ptr %4, align 8, !tbaa !11
  %21 = call i32 (i32, ptr, ptr, ptr, i32, ptr, ptr, ...) @ossl_cmp_print_log(i32 noundef 4, ptr noundef %20, ptr noundef @.str.77, ptr noundef @.str, i32 noundef 289, ptr noundef @.str.96, ptr noundef @.str.94, ptr noundef @.str.97)
  %22 = load ptr, ptr %4, align 8, !tbaa !11
  %23 = call i32 (i32, ptr, ptr, ptr, i32, ptr, ptr, ...) @ossl_cmp_print_log(i32 noundef 7, ptr noundef %22, ptr noundef @.str.77, ptr noundef @.str, i32 noundef 290, ptr noundef @.str.98, ptr noundef @.str.94, ptr noundef @.str.99)
  %24 = load ptr, ptr %4, align 8, !tbaa !11
  %25 = call i32 @OSSL_CMP_CTX_set_option(ptr noundef %24, i32 noundef 0, i32 noundef 7)
  %26 = icmp ne i32 %25, 0
  %27 = zext i1 %26 to i32
  %28 = call i32 @test_true(ptr noundef @.str, i32 noundef 291, ptr noundef @.str.100, i32 noundef %27)
  %29 = load ptr, ptr %4, align 8, !tbaa !11
  %30 = call i32 (i32, ptr, ptr, ptr, i32, ptr, ptr, ...) @ossl_cmp_print_log(i32 noundef 7, ptr noundef %29, ptr noundef @.str.77, ptr noundef @.str, i32 noundef 292, ptr noundef @.str.98, ptr noundef @.str.94, ptr noundef @.str.101)
  %31 = load ptr, ptr %4, align 8, !tbaa !11
  %32 = call i32 @OSSL_CMP_CTX_set_option(ptr noundef %31, i32 noundef 0, i32 noundef 6)
  %33 = icmp ne i32 %32, 0
  %34 = zext i1 %33 to i32
  %35 = call i32 @test_true(ptr noundef @.str, i32 noundef 293, ptr noundef @.str.102, i32 noundef %34)
  br label %36

36:                                               ; preds = %17, %16
  %37 = load ptr, ptr %4, align 8, !tbaa !11
  %38 = call i32 @OSSL_CMP_CTX_set_log_cb(ptr noundef %37, ptr noundef @test_log_cb)
  %39 = icmp ne i32 %38, 0
  %40 = zext i1 %39 to i32
  %41 = call i32 @test_true(ptr noundef @.str, i32 noundef 295, ptr noundef @.str.103, i32 noundef %40)
  %42 = icmp ne i32 %41, 0
  br i1 %42, label %44, label %43

43:                                               ; preds = %36
  store i32 0, ptr %3, align 4, !tbaa !13
  br label %61

44:                                               ; preds = %36
  store i32 299, ptr @test_log_line, align 4, !tbaa !13
  %45 = load ptr, ptr %4, align 8, !tbaa !11
  %46 = call i32 (i32, ptr, ptr, ptr, i32, ptr, ptr, ...) @ossl_cmp_print_log(i32 noundef 6, ptr noundef %45, ptr noundef @.str.77, ptr noundef @.str, i32 noundef 299, ptr noundef @.str.104, ptr noundef @.str.105, ptr noundef @.str.106, i32 noundef 107)
  %47 = load i32, ptr @test_log_cb_res, align 4, !tbaa !13
  %48 = call i32 @test_int_eq(ptr noundef @.str, i32 noundef 300, ptr noundef @.str.107, ptr noundef @.str.108, i32 noundef %47, i32 noundef 1)
  %49 = icmp ne i32 %48, 0
  br i1 %49, label %51, label %50

50:                                               ; preds = %44
  store i32 0, ptr %3, align 4, !tbaa !13
  br label %51

51:                                               ; preds = %50, %44
  %52 = load ptr, ptr %4, align 8, !tbaa !11
  %53 = call i32 @OSSL_CMP_CTX_set_option(ptr noundef %52, i32 noundef 0, i32 noundef 3)
  store i32 -1, ptr @test_log_cb_res, align 4, !tbaa !13
  store i32 305, ptr @test_log_line, align 4, !tbaa !13
  %54 = load ptr, ptr %4, align 8, !tbaa !11
  %55 = call i32 (i32, ptr, ptr, ptr, i32, ptr, ptr, ...) @ossl_cmp_print_log(i32 noundef 6, ptr noundef %54, ptr noundef @.str.77, ptr noundef @.str, i32 noundef 305, ptr noundef @.str.104, ptr noundef @.str.105, ptr noundef @.str.106, i32 noundef 107)
  %56 = load i32, ptr @test_log_cb_res, align 4, !tbaa !13
  %57 = call i32 @test_int_eq(ptr noundef @.str, i32 noundef 306, ptr noundef @.str.107, ptr noundef @.str.88, i32 noundef %56, i32 noundef -1)
  %58 = icmp ne i32 %57, 0
  br i1 %58, label %60, label %59

59:                                               ; preds = %51
  store i32 0, ptr %3, align 4, !tbaa !13
  br label %60

60:                                               ; preds = %59, %51
  br label %61

61:                                               ; preds = %60, %43
  call void @OSSL_CMP_log_close()
  call void @OSSL_CMP_log_close()
  %62 = load i32, ptr %3, align 4, !tbaa !13
  call void @llvm.lifetime.end.p0(i64 8, ptr %4) #5
  call void @llvm.lifetime.end.p0(i64 4, ptr %3) #5
  ret i32 %62
}

; Function Attrs: nounwind uwtable
define internal i32 @test_cmp_ctx_log_cb() #0 {
  %1 = alloca i32, align 4
  %2 = alloca ptr, align 8
  %3 = alloca i32, align 4
  %4 = alloca i32, align 4
  call void @llvm.lifetime.start.p0(i64 8, ptr %2) #5
  %5 = call ptr @set_up(ptr noundef @.str.6)
  store ptr %5, ptr %2, align 8, !tbaa !15
  call void @llvm.lifetime.start.p0(i64 4, ptr %3) #5
  store i32 0, ptr %3, align 4, !tbaa !13
  %6 = load ptr, ptr %2, align 8, !tbaa !15
  %7 = icmp eq ptr %6, null
  br i1 %7, label %8, label %9

8:                                                ; preds = %0
  store i32 0, ptr %1, align 4
  store i32 1, ptr %4, align 4
  br label %18

9:                                                ; preds = %0
  %10 = load ptr, ptr %2, align 8, !tbaa !15
  %11 = icmp ne ptr %10, null
  br i1 %11, label %12, label %16

12:                                               ; preds = %9
  %13 = load ptr, ptr %2, align 8, !tbaa !15
  %14 = call i32 @execute_cmp_ctx_log_cb_test(ptr noundef %13)
  store i32 %14, ptr %3, align 4, !tbaa !13
  %15 = load ptr, ptr %2, align 8, !tbaa !15
  call void @tear_down(ptr noundef %15)
  br label %16

16:                                               ; preds = %12, %9
  %17 = load i32, ptr %3, align 4, !tbaa !13
  store i32 %17, ptr %1, align 4
  store i32 1, ptr %4, align 4
  br label %18

18:                                               ; preds = %16, %8
  call void @llvm.lifetime.end.p0(i64 4, ptr %3) #5
  call void @llvm.lifetime.end.p0(i64 8, ptr %2) #5
  %19 = load i32, ptr %1, align 4
  ret i32 %19
}