; Function Attrs: nounwind uwtable
define internal range(i32 0, 2) i32 @test_cmp_ctx_log_cb() #1 {
  %1 = tail call fastcc ptr @set_up(ptr noundef nonnull @.str.6)
  %2 = icmp eq ptr %1, null
  br i1 %2, label %39, label %3

3:                                                ; preds = %0
  %4 = getelementptr i8, ptr %1, i64 8
  %.val = load ptr, ptr %4, align 8, !tbaa !4
  %5 = tail call i32 @OSSL_CMP_log_open() #6
  %6 = tail call i32 @OSSL_CMP_log_open() #6
  %7 = tail call i32 @OSSL_CMP_CTX_set_log_cb(ptr noundef %.val, ptr noundef null) #6
  %8 = icmp ne i32 %7, 0
  %9 = zext i1 %8 to i32
  %10 = tail call i32 @test_true(ptr noundef nonnull @.str, i32 noundef 285, ptr noundef nonnull @.str.92, i32 noundef %9) #6
  %.not.i = icmp eq i32 %10, 0
  br i1 %.not.i, label %24, label %11

11:                                               ; preds = %3
  %12 = tail call i32 (i32, ptr, ptr, ptr, i32, ptr, ptr, ...) @ossl_cmp_print_log(i32 noundef 3, ptr noundef %.val, ptr noundef nonnull @.str.77, ptr noundef nonnull @.str, i32 noundef 288, ptr noundef nonnull @.str.93, ptr noundef nonnull @.str.94, ptr noundef nonnull @.str.95) #6
  %13 = tail call i32 (i32, ptr, ptr, ptr, i32, ptr, ptr, ...) @ossl_cmp_print_log(i32 noundef 4, ptr noundef %.val, ptr noundef nonnull @.str.77, ptr noundef nonnull @.str, i32 noundef 289, ptr noundef nonnull @.str.96, ptr noundef nonnull @.str.94, ptr noundef nonnull @.str.97) #6
  %14 = tail call i32 (i32, ptr, ptr, ptr, i32, ptr, ptr, ...) @ossl_cmp_print_log(i32 noundef 7, ptr noundef %.val, ptr noundef nonnull @.str.77, ptr noundef nonnull @.str, i32 noundef 290, ptr noundef nonnull @.str.98, ptr noundef nonnull @.str.94, ptr noundef nonnull @.str.99) #6
  %15 = tail call i32 @OSSL_CMP_CTX_set_option(ptr noundef %.val, i32 noundef 0, i32 noundef 7) #6
  %16 = icmp ne i32 %15, 0
  %17 = zext i1 %16 to i32
  %18 = tail call i32 @test_true(ptr noundef nonnull @.str, i32 noundef 291, ptr noundef nonnull @.str.100, i32 noundef %17) #6
  %19 = tail call i32 (i32, ptr, ptr, ptr, i32, ptr, ptr, ...) @ossl_cmp_print_log(i32 noundef 7, ptr noundef %.val, ptr noundef nonnull @.str.77, ptr noundef nonnull @.str, i32 noundef 292, ptr noundef nonnull @.str.98, ptr noundef nonnull @.str.94, ptr noundef nonnull @.str.101) #6
  %20 = tail call i32 @OSSL_CMP_CTX_set_option(ptr noundef %.val, i32 noundef 0, i32 noundef 6) #6
  %21 = icmp ne i32 %20, 0
  %22 = zext i1 %21 to i32
  %23 = tail call i32 @test_true(ptr noundef nonnull @.str, i32 noundef 293, ptr noundef nonnull @.str.102, i32 noundef %22) #6
  br label %24

24:                                               ; preds = %11, %3
  %.0.i = phi i32 [ 1, %11 ], [ 0, %3 ]
  %25 = tail call i32 @OSSL_CMP_CTX_set_log_cb(ptr noundef %.val, ptr noundef nonnull @test_log_cb) #6
  %26 = icmp ne i32 %25, 0
  %27 = zext i1 %26 to i32
  %28 = tail call i32 @test_true(ptr noundef nonnull @.str, i32 noundef 295, ptr noundef nonnull @.str.103, i32 noundef %27) #6
  %.not12.i = icmp eq i32 %28, 0
  br i1 %.not12.i, label %tear_down.exit, label %29

29:                                               ; preds = %24
  store i32 299, ptr @test_log_line, align 4, !tbaa !41
  %30 = tail call i32 (i32, ptr, ptr, ptr, i32, ptr, ptr, ...) @ossl_cmp_print_log(i32 noundef 6, ptr noundef %.val, ptr noundef nonnull @.str.77, ptr noundef nonnull @.str, i32 noundef 299, ptr noundef nonnull @.str.104, ptr noundef nonnull @.str.105, ptr noundef nonnull @.str.106, i32 noundef 107) #6
  %31 = load i32, ptr @test_log_cb_res, align 4, !tbaa !41
  %32 = tail call i32 @test_int_eq(ptr noundef nonnull @.str, i32 noundef 300, ptr noundef nonnull @.str.107, ptr noundef nonnull @.str.108, i32 noundef %31, i32 noundef 1) #6
  %.not13.i = icmp eq i32 %32, 0
  %33 = tail call i32 @OSSL_CMP_CTX_set_option(ptr noundef %.val, i32 noundef 0, i32 noundef 3) #6
  store i32 -1, ptr @test_log_cb_res, align 4, !tbaa !41
  store i32 305, ptr @test_log_line, align 4, !tbaa !41
  %34 = tail call i32 (i32, ptr, ptr, ptr, i32, ptr, ptr, ...) @ossl_cmp_print_log(i32 noundef 6, ptr noundef %.val, ptr noundef nonnull @.str.77, ptr noundef nonnull @.str, i32 noundef 305, ptr noundef nonnull @.str.104, ptr noundef nonnull @.str.105, ptr noundef nonnull @.str.106, i32 noundef 107) #6
  %35 = load i32, ptr @test_log_cb_res, align 4, !tbaa !41
  %36 = tail call i32 @test_int_eq(ptr noundef nonnull @.str, i32 noundef 306, ptr noundef nonnull @.str.107, ptr noundef nonnull @.str.88, i32 noundef %35, i32 noundef -1) #6
  %.not14.i = icmp eq i32 %36, 0
  %37 = select i1 %.not14.i, i1 true, i1 %.not13.i
  %spec.select15.i = select i1 %37, i32 0, i32 %.0.i
  br label %tear_down.exit

tear_down.exit:                                   ; preds = %24, %29
  %.1.i = phi i32 [ 0, %24 ], [ %spec.select15.i, %29 ]
  tail call void @OSSL_CMP_log_close() #6
  tail call void @OSSL_CMP_log_close() #6
  %38 = load ptr, ptr %4, align 8, !tbaa !4
  tail call void @OSSL_CMP_CTX_free(ptr noundef %38) #6
  tail call void @CRYPTO_free(ptr noundef nonnull %1, ptr noundef nonnull @.str, i32 noundef 25) #6
  br label %39

39:                                               ; preds = %0, %tear_down.exit
  %.05 = phi i32 [ %.1.i, %tear_down.exit ], [ 0, %0 ]
  ret i32 %.05
}